target datalayout = "e-m:e-p270:32:32-p271:32:32-p272:64:64-i64:64-i128:128-f80:128-n8:16:32:64-S128"
target triple = "x86_64-pc-linux-gnu"

%struct.WebPPicture = type { i32, i32, i32, i32, ptr, ptr, ptr, i32, i32, ptr, i32, [2 x i32], ptr, i32, [3 x i32], ptr, ptr, i32, ptr, ptr, i32, ptr, ptr, [3 x i32], ptr, ptr, [8 x i32], ptr, ptr, [2 x ptr] }

@stderr = external global ptr, align 8
@.str.20 = private unnamed_addr constant [34 x i8] c"Error! Could not process file %s\0A\00", align 1

; Function Attrs: nounwind uwtable
define internal i64 @ReadPicture(ptr noundef %0, ptr noundef %1, i32 noundef %2) #0 {
  %4 = alloca ptr, align 8
  %5 = alloca ptr, align 8
  %6 = alloca i32, align 4
  %7 = alloca ptr, align 8
  %8 = alloca i64, align 8
  %9 = alloca ptr, align 8
  %10 = alloca i32, align 4
  store ptr %0, ptr %4, align 8, !tbaa !13
  store ptr %1, ptr %5, align 8, !tbaa !30
  store i32 %2, ptr %6, align 4, !tbaa !4
  call void @llvm.lifetime.start.p0(i64 8, ptr %7) #9
  store ptr null, ptr %7, align 8, !tbaa !13
  call void @llvm.lifetime.start.p0(i64 8, ptr %8) #9
  store i64 0, ptr %8, align 8, !tbaa !11
  call void @llvm.lifetime.start.p0(i64 8, ptr %9) #9
  store ptr null, ptr %9, align 8, !tbaa !32
  call void @llvm.lifetime.start.p0(i64 4, ptr %10) #9
  %11 = load ptr, ptr %4, align 8, !tbaa !13
  %12 = call i32 @ImgIoUtilReadFile(ptr noundef %11, ptr noundef %7, ptr noundef %8)
  store i32 %12, ptr %10, align 4, !tbaa !4
  %13 = load i32, ptr %10, align 4, !tbaa !4
  %14 = icmp ne i32 %13, 0
  br i1 %14, label %16, label %15

15:                                               ; preds = %3
  br label %28

16:                                               ; preds = %3
  %17 = load ptr, ptr %5, align 8, !tbaa !30
  %18 = getelementptr inbounds nuw %struct.WebPPicture, ptr %17, i32 0, i32 0
  store i32 1, ptr %18, align 8, !tbaa !26
  %19 = load ptr, ptr %7, align 8, !tbaa !13
  %20 = load i64, ptr %8, align 8, !tbaa !11
  %21 = call ptr @WebPGuessImageReader(ptr noundef %19, i64 noundef %20)
  store ptr %21, ptr %9, align 8, !tbaa !32
  %22 = load ptr, ptr %9, align 8, !tbaa !32
  %23 = load ptr, ptr %7, align 8, !tbaa !13
  %24 = load i64, ptr %8, align 8, !tbaa !11
  %25 = load ptr, ptr %5, align 8, !tbaa !30
  %26 = load i32, ptr %6, align 4, !tbaa !4
  %27 = call i32 %22(ptr noundef %23, i64 noundef %24, ptr noundef %25, i32 noundef %26, ptr noundef null)
  store i32 %27, ptr %10, align 4, !tbaa !4
  br label %28

28:                                               ; preds = %16, %15
  %29 = load i32, ptr %10, align 4, !tbaa !4
  %30 = icmp ne i32 %29, 0
  br i1 %30, label %35, label %31

31:                                               ; preds = %28
  %32 = load ptr, ptr @stderr, align 8, !tbaa !15
  %33 = load ptr, ptr %4, align 8, !tbaa !13
  %34 = call i32 (ptr, ptr, ...) @fprintf(ptr noundef %32, ptr noundef @.str.20, ptr noundef %33) #9
  br label %35

35:                                               ; preds = %31, %28
  %36 = load ptr, ptr %7, align 8, !tbaa !13
  call void @free(ptr noundef %36) #9
  %37 = load i32, ptr %10, align 4, !tbaa !4
  %38 = icmp ne i32 %37, 0
  br i1 %38, label %39, label %41

39:                                               ; preds = %35
  %40 = load i64, ptr %8, align 8, !tbaa !11
  br label %42

41:                                               ; preds = %35
  br label %42

42:                                               ; preds = %41, %39
  %43 = phi i64 [ %40, %39 ], [ 0, %41 ]
  call void @llvm.lifetime.end.p0(i64 4, ptr %10) #9
  call void @llvm.lifetime.end.p0(i64 8, ptr %9) #9
  call void @llvm.lifetime.end.p0(i64 8, ptr %8) #9
  call void @llvm.lifetime.end.p0(i64 8, ptr %7) #9
  ret i64 %43
}