; Function Attrs: nounwind uwtable
define internal fastcc i64 @ReadPicture(ptr noundef nonnull %0, ptr noundef nonnull %1) unnamed_addr #0 {
  %3 = alloca ptr, align 8
  %4 = alloca i64, align 8
  call void @llvm.lifetime.start.p0(i64 8, ptr nonnull %3) #13
  store ptr null, ptr %3, align 8, !tbaa !9
  call void @llvm.lifetime.start.p0(i64 8, ptr nonnull %4) #13
  store i64 0, ptr %4, align 8, !tbaa !25
  %5 = call i32 @ImgIoUtilReadFile(ptr noundef nonnull %0, ptr noundef nonnull %3, ptr noundef nonnull %4) #13
  %.not = icmp eq i32 %5, 0
  br i1 %.not, label %17, label %6

6:                                                ; preds = %2
  store i32 1, ptr %1, align 8, !tbaa !21
  %7 = load ptr, ptr %3, align 8, !tbaa !9
  %8 = load i64, ptr %4, align 8, !tbaa !25
  %9 = call ptr @WebPGuessImageReader(ptr noundef %7, i64 noundef %8) #13
  %10 = load ptr, ptr %3, align 8, !tbaa !9
  %11 = load i64, ptr %4, align 8, !tbaa !25
  %12 = call i32 %9(ptr noundef %10, i64 noundef %11, ptr noundef nonnull %1, i32 noundef 1, ptr noundef null) #13
  %13 = icmp eq i32 %12, 0
  br i1 %13, label %17, label %14

14:                                               ; preds = %6
  %15 = load ptr, ptr %3, align 8, !tbaa !9
  call void @free(ptr noundef %15) #13
  %16 = load i64, ptr %4, align 8
  br label %21

17:                                               ; preds = %6, %2
  %18 = load ptr, ptr @stderr, align 8, !tbaa !4
  %19 = call i32 (ptr, ptr, ...) @fprintf(ptr noundef %18, ptr noundef nonnull @.str.20, ptr noundef nonnull %0) #16
  %20 = load ptr, ptr %3, align 8, !tbaa !9
  call void @free(ptr noundef %20) #13
  br label %21

21:                                               ; preds = %14, %17
  %22 = phi i64 [ 0, %17 ], [ %16, %14 ]
  call void @llvm.lifetime.end.p0(i64 8, ptr nonnull %4) #13
  call void @llvm.lifetime.end.p0(i64 8, ptr nonnull %3) #13
  ret i64 %22
}